target datalayout = "e-m:e-p270:32:32-p271:32:32-p272:64:64-i64:64-i128:128-f80:128-n8:16:32:64-S128"
target triple = "x86_64-pc-linux-gnu"

@numvars = internal global i32 0, align 4

; Function Attrs: nounwind uwtable
define internal i32 @array_hash(ptr noundef %0, i32 noundef %1) #0 {
  %3 = alloca ptr, align 8
  %4 = alloca i32, align 4
  %5 = alloca i32, align 4
  %6 = alloca i32, align 4
  %7 = alloca ptr, align 8
  store ptr %0, ptr %3, align 8, !tbaa !44
  store i32 %1, ptr %4, align 4, !tbaa !8
  call void @llvm.lifetime.start.p0(i64 4, ptr %5) #5
  store i32 0, ptr %5, align 4, !tbaa !8
  call void @llvm.lifetime.start.p0(i64 4, ptr %6) #5
  call void @llvm.lifetime.start.p0(i64 8, ptr %7) #5
  %8 = load ptr, ptr %3, align 8, !tbaa !44
  store ptr %8, ptr %7, align 8, !tbaa !27
  store i32 0, ptr %6, align 4, !tbaa !8
  br label %9

9:                                                ; preds = %22, %2
  %10 = load i32, ptr %6, align 4, !tbaa !8
  %11 = load i32, ptr @numvars, align 4, !tbaa !8
  %12 = icmp slt i32 %10, %11
  br i1 %12, label %13, label %25

13:                                               ; preds = %9
  %14 = load i32, ptr %5, align 4, !tbaa !8
  %15 = mul nsw i32 %14, 997
  %16 = load ptr, ptr %7, align 8, !tbaa !27
  %17 = load i32, ptr %6, align 4, !tbaa !8
  %18 = sext i32 %17 to i64
  %19 = getelementptr inbounds i32, ptr %16, i64 %18
  %20 = load i32, ptr %19, align 4, !tbaa !8
  %21 = add nsw i32 %15, %20
  store i32 %21, ptr %5, align 4, !tbaa !8
  br label %22

22:                                               ; preds = %13
  %23 = load i32, ptr %6, align 4, !tbaa !8
  %24 = add nsw i32 %23, 1
  store i32 %24, ptr %6, align 4, !tbaa !8
  br label %9, !llvm.loop !46

25:                                               ; preds = %9
  %26 = load i32, ptr %5, align 4, !tbaa !8
  %27 = icmp slt i32 %26, 0
  br i1 %27, label %28, label %31

28:                                               ; preds = %25
  %29 = load i32, ptr %5, align 4, !tbaa !8
  %30 = sub nsw i32 0, %29
  br label %33

31:                                               ; preds = %25
  %32 = load i32, ptr %5, align 4, !tbaa !8
  br label %33

33:                                               ; preds = %31, %28
  %34 = phi i32 [ %30, %28 ], [ %32, %31 ]
  %35 = load i32, ptr %4, align 4, !tbaa !8
  %36 = srem i32 %34, %35
  call void @llvm.lifetime.end.p0(i64 8, ptr %7) #5
  call void @llvm.lifetime.end.p0(i64 4, ptr %6) #5
  call void @llvm.lifetime.end.p0(i64 4, ptr %5) #5
  ret i32 %36
}