; Function Attrs: nofree norecurse nosync nounwind memory(read, inaccessiblemem: none) uwtable
define internal range(i32 0, -2147483648) i32 @array_hash(ptr noundef readonly captures(none) %0, i32 noundef %1) #5 {
  %3 = load i32, ptr @numvars, align 4, !tbaa !3
  %4 = icmp sgt i32 %3, 0
  br i1 %4, label %.lr.ph.preheader, label %._crit_edge

.lr.ph.preheader:                                 ; preds = %2
  %wide.trip.count = zext nneg i32 %3 to i64
  br label %.lr.ph

.lr.ph:                                           ; preds = %.lr.ph.preheader, %.lr.ph
  %indvars.iv = phi i64 [ 0, %.lr.ph.preheader ], [ %indvars.iv.next, %.lr.ph ]
  %.011 = phi i32 [ 0, %.lr.ph.preheader ], [ %8, %.lr.ph ]
  %5 = mul nsw i32 %.011, 997
  %6 = getelementptr inbounds nuw i32, ptr %0, i64 %indvars.iv
  %7 = load i32, ptr %6, align 4, !tbaa !3
  %8 = add nsw i32 %7, %5
  %indvars.iv.next = add nuw nsw i64 %indvars.iv, 1
  %exitcond.not = icmp eq i64 %indvars.iv.next, %wide.trip.count
  br i1 %exitcond.not, label %._crit_edge, label %.lr.ph, !llvm.loop !57

._crit_edge:                                      ; preds = %.lr.ph, %2
  %.0.lcssa = phi i32 [ 0, %2 ], [ %8, %.lr.ph ]
  %9 = tail call i32 @llvm.abs.i32(i32 %.0.lcssa, i1 true)
  %10 = srem i32 %9, %1
  ret i32 %10
}